; Function Attrs: nounwind uwtable
define dso_local void @_ZTv0_n24_NSt3__110ostrstreamD1Ev(ptr noundef %0) unnamed_addr #15 align 2 personality ptr @__gxx_personality_v0 {
  %2 = load ptr, ptr %0, align 8, !tbaa !4
  %3 = getelementptr inbounds i8, ptr %2, i64 -24
  %4 = load i64, ptr %3, align 8
  %5 = getelementptr inbounds i8, ptr %0, i64 %4
  store ptr getelementptr inbounds nuw inrange(-24, 16) (i8, ptr @_ZTVNSt3__110ostrstreamE, i64 24), ptr %5, align 8, !tbaa !4
  %6 = getelementptr inbounds nuw i8, ptr %5, i64 104
  store ptr getelementptr inbounds nuw inrange(-24, 16) (i8, ptr @_ZTVNSt3__110ostrstreamE, i64 64), ptr %6, align 8, !tbaa !4
  %7 = getelementptr inbounds nuw i8, ptr %5, i64 8
  store ptr getelementptr inbounds nuw inrange(-16, 112) (i8, ptr @_ZTVNSt3__112strstreambufE, i64 16), ptr %7, align 8, !tbaa !4
  %8 = getelementptr inbounds nuw i8, ptr %5, i64 24
  %9 = load ptr, ptr %8, align 8, !tbaa !23
  %.not.i.i.i = icmp eq ptr %9, null
  br i1 %.not.i.i.i, label %_ZNSt3__110ostrstreamD1Ev.exit, label %10

10:                                               ; preds = %1
  %11 = getelementptr inbounds nuw i8, ptr %5, i64 72
  %12 = load i32, ptr %11, align 8, !tbaa !7
  %13 = and i32 %12, 9
  %or.cond.i.i.i = icmp eq i32 %13, 1
  br i1 %or.cond.i.i.i, label %14, label %_ZNSt3__110ostrstreamD1Ev.exit

14:                                               ; preds = %10
  %15 = getelementptr inbounds nuw i8, ptr %5, i64 96
  %16 = load ptr, ptr %15, align 8, !tbaa !19
  %.not3.i.i.i = icmp eq ptr %16, null
  br i1 %.not3.i.i.i, label %18, label %17

17:                                               ; preds = %14
  invoke void %16(ptr noundef nonnull %9)
          to label %_ZNSt3__110ostrstreamD1Ev.exit unwind label %19

18:                                               ; preds = %14
  tail call void @_ZdaPv(ptr noundef nonnull %9) #20
  br label %_ZNSt3__110ostrstreamD1Ev.exit

19:                                               ; preds = %17
  %20 = landingpad { ptr, i32 }
          catch ptr null
  %21 = extractvalue { ptr, i32 } %20, 0
  tail call void @__clang_call_terminate(ptr %21) #21
  unreachable

_ZNSt3__110ostrstreamD1Ev.exit:                   ; preds = %1, %10, %17, %18
  store ptr getelementptr inbounds nuw inrange(-16, 112) (i8, ptr @_ZTVNSt3__115basic_streambufIcNS_11char_traitsIcEEEE, i64 16), ptr %7, align 8, !tbaa !4
  %22 = getelementptr inbounds nuw i8, ptr %5, i64 16
  tail call void @_ZNSt3__16localeD1Ev(ptr noundef nonnull align 8 dereferenceable(8) %22) #18
  tail call void @_ZNSt3__113basic_ostreamIcNS_11char_traitsIcEEED2Ev(ptr noundef nonnull align 8 dereferenceable(104) %5, ptr noundef nonnull getelementptr inbounds nuw (i8, ptr @_ZTTNSt3__110ostrstreamE, i64 8)) #18
  tail call void @_ZNSt3__19basic_iosIcNS_11char_traitsIcEEED2Ev(ptr noundef nonnull align 8 dereferenceable(148) %6) #18
  ret void
}